target datalayout = "e-m:e-p270:32:32-p271:32:32-p272:64:64-i64:64-i128:128-f80:128-n8:16:32:64-S128"
target triple = "x86_64-pc-linux-gnu"

%struct.hwloc_ps_process = type { i64, [64 x i8], [1024 x i8], ptr, i64, i32, i32, i32, ptr }
%struct.dirent = type { i64, i64, i16, i8, [256 x i8] }
%struct.hwloc_ps_thread = type { i64, ptr, i32, [16 x i8] }

@.str.16 = private unnamed_addr constant [6 x i8] c"/proc\00", align 1

; Function Attrs: nounwind uwtable
define hidden void @hwloc_ps_free_process(ptr noundef %0) #0 {
  %2 = alloca ptr, align 8
  %3 = alloca i32, align 4
  store ptr %0, ptr %2, align 8, !tbaa !10
  call void @llvm.lifetime.start.p0(i64 4, ptr %3) #10
  %4 = load ptr, ptr %2, align 8, !tbaa !10
  %5 = getelementptr inbounds nuw %struct.hwloc_ps_process, ptr %4, i32 0, i32 6
  %6 = load i32, ptr %5, align 4, !tbaa !36
  %7 = icmp ne i32 %6, 0
  br i1 %7, label %8, label %39

8:                                                ; preds = %1
  store i32 0, ptr %3, align 4, !tbaa !18
  br label %9

9:                                                ; preds = %35, %8
  %10 = load i32, ptr %3, align 4, !tbaa !18
  %11 = load ptr, ptr %2, align 8, !tbaa !10
  %12 = getelementptr inbounds nuw %struct.hwloc_ps_process, ptr %11, i32 0, i32 6
  %13 = load i32, ptr %12, align 4, !tbaa !36
  %14 = icmp ult i32 %10, %13
  br i1 %14, label %15, label %38

15:                                               ; preds = %9
  %16 = load ptr, ptr %2, align 8, !tbaa !10
  %17 = getelementptr inbounds nuw %struct.hwloc_ps_process, ptr %16, i32 0, i32 8
  %18 = load ptr, ptr %17, align 8, !tbaa !29
  %19 = load i32, ptr %3, align 4, !tbaa !18
  %20 = zext i32 %19 to i64
  %21 = getelementptr inbounds nuw %struct.hwloc_ps_thread, ptr %18, i64 %20
  %22 = getelementptr inbounds nuw %struct.hwloc_ps_thread, ptr %21, i32 0, i32 1
  %23 = load ptr, ptr %22, align 8, !tbaa !33
  %24 = icmp ne ptr %23, null
  br i1 %24, label %25, label %34

25:                                               ; preds = %15
  %26 = load ptr, ptr %2, align 8, !tbaa !10
  %27 = getelementptr inbounds nuw %struct.hwloc_ps_process, ptr %26, i32 0, i32 8
  %28 = load ptr, ptr %27, align 8, !tbaa !29
  %29 = load i32, ptr %3, align 4, !tbaa !18
  %30 = zext i32 %29 to i64
  %31 = getelementptr inbounds nuw %struct.hwloc_ps_thread, ptr %28, i64 %30
  %32 = getelementptr inbounds nuw %struct.hwloc_ps_thread, ptr %31, i32 0, i32 1
  %33 = load ptr, ptr %32, align 8, !tbaa !33
  call void @hwloc_bitmap_free(ptr noundef %33)
  br label %34

34:                                               ; preds = %25, %15
  br label %35

35:                                               ; preds = %34
  %36 = load i32, ptr %3, align 4, !tbaa !18
  %37 = add i32 %36, 1
  store i32 %37, ptr %3, align 4, !tbaa !18
  br label %9, !llvm.loop !46

38:                                               ; preds = %9
  br label %39

39:                                               ; preds = %38, %1
  %40 = load ptr, ptr %2, align 8, !tbaa !10
  %41 = getelementptr inbounds nuw %struct.hwloc_ps_process, ptr %40, i32 0, i32 8
  %42 = load ptr, ptr %41, align 8, !tbaa !29
  call void @free(ptr noundef %42) #10
  %43 = load ptr, ptr %2, align 8, !tbaa !10
  %44 = getelementptr inbounds nuw %struct.hwloc_ps_process, ptr %43, i32 0, i32 3
  %45 = load ptr, ptr %44, align 8, !tbaa !38
  call void @hwloc_bitmap_free(ptr noundef %45)
  call void @llvm.lifetime.end.p0(i64 4, ptr %3) #10
  ret void
}

; Function Attrs: nounwind uwtable
define hidden i32 @hwloc_ps_foreach_process(ptr noundef %0, ptr noundef %1, ptr noundef %2, ptr noundef %3, i64 noundef %4, ptr noundef %5, i64 noundef %6) #0 {
  %8 = alloca i32, align 4
  %9 = alloca ptr, align 8
  %10 = alloca ptr, align 8
  %11 = alloca ptr, align 8
  %12 = alloca ptr, align 8
  %13 = alloca i64, align 8
  %14 = alloca ptr, align 8
  %15 = alloca i64, align 8
  %16 = alloca ptr, align 8
  %17 = alloca ptr, align 8
  %18 = alloca i32, align 4
  %19 = alloca %struct.hwloc_ps_process, align 8
  %20 = alloca i64, align 8
  %21 = alloca ptr, align 8
  store ptr %0, ptr %9, align 8, !tbaa !3
  store ptr %1, ptr %10, align 8, !tbaa !8
  store ptr %2, ptr %11, align 8, !tbaa !47
  store ptr %3, ptr %12, align 8, !tbaa !47
  store i64 %4, ptr %13, align 8, !tbaa !12
  store ptr %5, ptr %14, align 8, !tbaa !19
  store i64 %6, ptr %15, align 8, !tbaa !12
  call void @llvm.lifetime.start.p0(i64 8, ptr %16) #10
  call void @llvm.lifetime.start.p0(i64 8, ptr %17) #10
  %22 = call ptr @opendir(ptr noundef @.str.16)
  store ptr %22, ptr %16, align 8, !tbaa !23
  %23 = load ptr, ptr %16, align 8, !tbaa !23
  %24 = icmp ne ptr %23, null
  br i1 %24, label %26, label %25

25:                                               ; preds = %7
  store i32 -1, ptr %8, align 4
  store i32 1, ptr %18, align 4
  br label %87

26:                                               ; preds = %7
  br label %27

27:                                               ; preds = %83, %81, %26
  %28 = load ptr, ptr %16, align 8, !tbaa !23
  %29 = call ptr @readdir(ptr noundef %28)
  store ptr %29, ptr %17, align 8, !tbaa !25
  %30 = icmp ne ptr %29, null
  br i1 %30, label %31, label %84

31:                                               ; preds = %27
  call void @llvm.lifetime.start.p0(i64 1136, ptr %19) #10
  call void @llvm.lifetime.start.p0(i64 8, ptr %20) #10
  call void @llvm.lifetime.start.p0(i64 8, ptr %21) #10
  %32 = load ptr, ptr %17, align 8, !tbaa !25
  %33 = getelementptr inbounds nuw %struct.dirent, ptr %32, i32 0, i32 4
  %34 = getelementptr inbounds [256 x i8], ptr %33, i64 0, i64 0
  %35 = call i64 @strtol(ptr noundef %34, ptr noundef %21, i32 noundef 10) #10
  store i64 %35, ptr %20, align 8, !tbaa !12
  %36 = load ptr, ptr %21, align 8, !tbaa !19
  %37 = load i8, ptr %36, align 1, !tbaa !21
  %38 = icmp ne i8 %37, 0
  br i1 %38, label %39, label %40

39:                                               ; preds = %31
  store i32 2, ptr %18, align 4
  br label %81, !llvm.loop !48

40:                                               ; preds = %31
  %41 = load i64, ptr %20, align 8, !tbaa !12
  %42 = getelementptr inbounds nuw %struct.hwloc_ps_process, ptr %19, i32 0, i32 0
  store i64 %41, ptr %42, align 8, !tbaa !14
  %43 = getelementptr inbounds nuw %struct.hwloc_ps_process, ptr %19, i32 0, i32 3
  store ptr null, ptr %43, align 8, !tbaa !38
  %44 = getelementptr inbounds nuw %struct.hwloc_ps_process, ptr %19, i32 0, i32 6
  store i32 0, ptr %44, align 4, !tbaa !36
  %45 = getelementptr inbounds nuw %struct.hwloc_ps_process, ptr %19, i32 0, i32 7
  store i32 0, ptr %45, align 8, !tbaa !35
  %46 = getelementptr inbounds nuw %struct.hwloc_ps_process, ptr %19, i32 0, i32 8
  store ptr null, ptr %46, align 8, !tbaa !29
  %47 = load ptr, ptr %9, align 8, !tbaa !3
  %48 = load ptr, ptr %10, align 8, !tbaa !8
  %49 = load i64, ptr %13, align 8, !tbaa !12
  %50 = call i32 @hwloc_ps_read_process(ptr noundef %47, ptr noundef %48, ptr noundef %19, i64 noundef %49)
  %51 = icmp slt i32 %50, 0
  br i1 %51, label %52, label %53

52:                                               ; preds = %40
  br label %80

53:                                               ; preds = %40
  %54 = load ptr, ptr %14, align 8, !tbaa !19
  %55 = icmp ne ptr %54, null
  br i1 %55, label %56, label %63

56:                                               ; preds = %53
  %57 = getelementptr inbounds nuw %struct.hwloc_ps_process, ptr %19, i32 0, i32 1
  %58 = getelementptr inbounds [64 x i8], ptr %57, i64 0, i64 0
  %59 = load ptr, ptr %14, align 8, !tbaa !19
  %60 = call ptr @strstr(ptr noundef %58, ptr noundef %59) #12
  %61 = icmp ne ptr %60, null
  br i1 %61, label %63, label %62

62:                                               ; preds = %56
  br label %80

63:                                               ; preds = %56, %53
  %64 = load i64, ptr %15, align 8, !tbaa !12
  %65 = icmp ne i64 %64, -1
  br i1 %65, label %66, label %76

66:                                               ; preds = %63
  %67 = getelementptr inbounds nuw %struct.hwloc_ps_process, ptr %19, i32 0, i32 4
  %68 = load i64, ptr %67, align 8, !tbaa !22
  %69 = icmp ne i64 %68, -1
  br i1 %69, label %70, label %76

70:                                               ; preds = %66
  %71 = getelementptr inbounds nuw %struct.hwloc_ps_process, ptr %19, i32 0, i32 4
  %72 = load i64, ptr %71, align 8, !tbaa !22
  %73 = load i64, ptr %15, align 8, !tbaa !12
  %74 = icmp ne i64 %72, %73
  br i1 %74, label %75, label %76

75:                                               ; preds = %70
  br label %80

76:                                               ; preds = %70, %66, %63
  %77 = load ptr, ptr %11, align 8, !tbaa !47
  %78 = load ptr, ptr %9, align 8, !tbaa !3
  %79 = load ptr, ptr %12, align 8, !tbaa !47
  call void %77(ptr noundef %78, ptr noundef %19, ptr noundef %79)
  br label %80

80:                                               ; preds = %76, %75, %62, %52
  call void @hwloc_ps_free_process(ptr noundef %19)
  store i32 0, ptr %18, align 4
  br label %81

81:                                               ; preds = %80, %39
  call void @llvm.lifetime.end.p0(i64 8, ptr %21) #10
  call void @llvm.lifetime.end.p0(i64 8, ptr %20) #10
  call void @llvm.lifetime.end.p0(i64 1136, ptr %19) #10
  %82 = load i32, ptr %18, align 4
  switch i32 %82, label %89 [
    i32 0, label %83
    i32 2, label %27
  ]

83:                                               ; preds = %81
  br label %27, !llvm.loop !48

84:                                               ; preds = %27
  %85 = load ptr, ptr %16, align 8, !tbaa !23
  %86 = call i32 @closedir(ptr noundef %85)
  store i32 0, ptr %8, align 4
  store i32 1, ptr %18, align 4
  br label %87

87:                                               ; preds = %84, %25
  call void @llvm.lifetime.end.p0(i64 8, ptr %17) #10
  call void @llvm.lifetime.end.p0(i64 8, ptr %16) #10
  %88 = load i32, ptr %8, align 4
  ret i32 %88

89:                                               ; preds = %81
  unreachable
}