; Function Attrs: nounwind uwtable
define hidden range(i32 -1, 1) i32 @hwloc_ps_foreach_process(ptr noundef %0, ptr noundef %1, ptr noundef readonly captures(none) %2, ptr noundef %3, i64 noundef %4, ptr noundef readonly captures(address_is_null) %5, i64 noundef %6) local_unnamed_addr #0 {
  %8 = alloca %struct.hwloc_ps_process, align 8
  %9 = alloca ptr, align 8
  %10 = tail call ptr @opendir(ptr noundef nonnull @.str.16)
  %.not = icmp eq ptr %10, null
  br i1 %.not, label %52, label %.preheader

.preheader:                                       ; preds = %7
  %11 = tail call ptr @readdir(ptr noundef nonnull %10) #15
  %.not2130 = icmp eq ptr %11, null
  br i1 %.not2130, label %._crit_edge, label %.lr.ph

.lr.ph:                                           ; preds = %.preheader
  %12 = getelementptr inbounds nuw i8, ptr %8, i64 1096
  %13 = getelementptr inbounds nuw i8, ptr %8, i64 1116
  %14 = getelementptr inbounds nuw i8, ptr %8, i64 1120
  %15 = getelementptr inbounds nuw i8, ptr %8, i64 1128
  %.not23 = icmp eq ptr %5, null
  %16 = getelementptr inbounds nuw i8, ptr %8, i64 8
  %17 = icmp eq i64 %6, -1
  %18 = getelementptr inbounds nuw i8, ptr %8, i64 1104
  br label %19

19:                                               ; preds = %.lr.ph, %49
  %20 = phi ptr [ %11, %.lr.ph ], [ %50, %49 ]
  call void @llvm.lifetime.start.p0(i64 1136, ptr nonnull %8) #15
  call void @llvm.lifetime.start.p0(i64 8, ptr nonnull %9) #15
  %21 = getelementptr inbounds nuw i8, ptr %20, i64 19
  %22 = call i64 @strtol(ptr noundef nonnull %21, ptr noundef nonnull %9, i32 noundef 10) #15
  %23 = load ptr, ptr %9, align 8, !tbaa !14
  %24 = load i8, ptr %23, align 1, !tbaa !12
  %.not22 = icmp eq i8 %24, 0
  br i1 %.not22, label %25, label %49, !llvm.loop !31

25:                                               ; preds = %19
  store i64 %22, ptr %8, align 8, !tbaa !3
  store ptr null, ptr %12, align 8, !tbaa !27
  store i32 0, ptr %13, align 4, !tbaa !25
  store i32 0, ptr %14, align 8, !tbaa !24
  store ptr null, ptr %15, align 8, !tbaa !18
  %26 = call i32 @hwloc_ps_read_process(ptr noundef %0, ptr noundef %1, ptr noundef nonnull %8, i64 noundef %4)
  %27 = icmp slt i32 %26, 0
  br i1 %27, label %36, label %28

28:                                               ; preds = %25
  br i1 %.not23, label %31, label %29

29:                                               ; preds = %28
  %30 = call ptr @strstr(ptr noundef nonnull dereferenceable(1) %16, ptr noundef nonnull dereferenceable(1) %5) #17
  %.not24 = icmp eq ptr %30, null
  br i1 %.not24, label %36, label %31

31:                                               ; preds = %29, %28
  %32 = load i64, ptr %18, align 8
  %33 = icmp eq i64 %32, -1
  %.not25 = icmp eq i64 %32, %6
  %34 = or i1 %33, %.not25
  %or.cond26 = select i1 %17, i1 true, i1 %34
  br i1 %or.cond26, label %35, label %36

35:                                               ; preds = %31
  call void %2(ptr noundef %0, ptr noundef nonnull %8, ptr noundef %3) #15
  br label %36

36:                                               ; preds = %31, %29, %25, %35
  %37 = load i32, ptr %13, align 4, !tbaa !25
  %.not.i = icmp eq i32 %37, 0
  br i1 %.not.i, label %hwloc_ps_free_process.exit, label %.lr.ph.i

.lr.ph.i:                                         ; preds = %36, %43
  %38 = phi i32 [ %44, %43 ], [ %37, %36 ]
  %indvars.iv.i = phi i64 [ %indvars.iv.next.i, %43 ], [ 0, %36 ]
  %39 = load ptr, ptr %15, align 8, !tbaa !18
  %40 = getelementptr inbounds nuw %struct.hwloc_ps_thread, ptr %39, i64 %indvars.iv.i, i32 1
  %41 = load ptr, ptr %40, align 8, !tbaa !22
  %.not10.i = icmp eq ptr %41, null
  br i1 %.not10.i, label %43, label %42

42:                                               ; preds = %.lr.ph.i
  call void @hwloc_bitmap_free(ptr noundef nonnull %41) #15
  %.pre.i = load i32, ptr %13, align 4, !tbaa !25
  br label %43

43:                                               ; preds = %42, %.lr.ph.i
  %44 = phi i32 [ %38, %.lr.ph.i ], [ %.pre.i, %42 ]
  %indvars.iv.next.i = add nuw nsw i64 %indvars.iv.i, 1
  %45 = zext i32 %44 to i64
  %46 = icmp samesign ult i64 %indvars.iv.next.i, %45
  br i1 %46, label %.lr.ph.i, label %hwloc_ps_free_process.exit, !llvm.loop !30

hwloc_ps_free_process.exit:                       ; preds = %43, %36
  %47 = load ptr, ptr %15, align 8, !tbaa !18
  call void @free(ptr noundef %47) #15
  %48 = load ptr, ptr %12, align 8, !tbaa !27
  call void @hwloc_bitmap_free(ptr noundef %48) #15
  br label %49

49:                                               ; preds = %19, %hwloc_ps_free_process.exit
  call void @llvm.lifetime.end.p0(i64 8, ptr nonnull %9) #15
  call void @llvm.lifetime.end.p0(i64 1136, ptr nonnull %8) #15
  %50 = call ptr @readdir(ptr noundef nonnull %10) #15
  %.not21 = icmp eq ptr %50, null
  br i1 %.not21, label %._crit_edge, label %19

._crit_edge:                                      ; preds = %49, %.preheader
  %51 = call i32 @closedir(ptr noundef nonnull %10)
  br label %52

52:                                               ; preds = %7, %._crit_edge
  %.0 = phi i32 [ 0, %._crit_edge ], [ -1, %7 ]
  ret i32 %.0
}